target datalayout = "e-m:e-p270:32:32-p271:32:32-p272:64:64-i64:64-i128:128-f80:128-n8:16:32:64-S128"
target triple = "x86_64-unknown-linux-gnu"

%"class.FLAC::Metadata::VorbisComment::Entry" = type <{ ptr, i8, [7 x i8], %struct.FLAC__StreamMetadata_VorbisComment_Entry, ptr, i32, [4 x i8], ptr, i32, [4 x i8] }>
%struct.FLAC__StreamMetadata_VorbisComment_Entry = type { i32, ptr }

; Function Attrs: mustprogress nounwind sspstrong uwtable
define internal noundef ptr @_ZL12safe_malloc_m(i64 noundef %size) #5 {
entry:
  %size.addr = alloca i64, align 8
  store i64 %size, ptr %size.addr, align 8
  %0 = load i64, ptr %size.addr, align 8
  %tobool = icmp ne i64 %0, 0
  br i1 %tobool, label %if.end, label %if.then

if.then:                                          ; preds = %entry
  %1 = load i64, ptr %size.addr, align 8
  %inc = add i64 %1, 1
  store i64 %inc, ptr %size.addr, align 8
  br label %if.end

if.end:                                           ; preds = %if.then, %entry
  %2 = load i64, ptr %size.addr, align 8
  %call = call noalias ptr @malloc(i64 noundef %2) #16
  ret ptr %call
}

; Function Attrs: mustprogress sspstrong uwtable
define internal noundef ptr @_ZL20safe_malloc_add_2op_mm(i64 noundef %size1, i64 noundef %size2) #0 {
entry:
  %retval = alloca ptr, align 8
  %size1.addr = alloca i64, align 8
  %size2.addr = alloca i64, align 8
  store i64 %size1, ptr %size1.addr, align 8
  store i64 %size2, ptr %size2.addr, align 8
  %0 = load i64, ptr %size1.addr, align 8
  %1 = load i64, ptr %size2.addr, align 8
  %add = add i64 %1, %0
  store i64 %add, ptr %size2.addr, align 8
  %2 = load i64, ptr %size2.addr, align 8
  %3 = load i64, ptr %size1.addr, align 8
  %cmp = icmp ult i64 %2, %3
  br i1 %cmp, label %if.then, label %if.end

if.then:                                          ; preds = %entry
  store ptr null, ptr %retval, align 8
  br label %return

if.end:                                           ; preds = %entry
  %4 = load i64, ptr %size2.addr, align 8
  %call = call noundef ptr @_ZL12safe_malloc_m(i64 noundef %4)
  store ptr %call, ptr %retval, align 8
  br label %return

return:                                           ; preds = %if.end, %if.then
  %5 = load ptr, ptr %retval, align 8
  ret ptr %5
}

; Function Attrs: mustprogress nounwind sspstrong uwtable
define void @_ZN4FLAC8Metadata13VorbisComment5Entry11clear_entryEv(ptr noundef nonnull align 8 dereferenceable(60) %this) #5 align 2 {
entry:
  %this.addr = alloca ptr, align 8
  store ptr %this, ptr %this.addr, align 8
  %this1 = load ptr, ptr %this.addr, align 8
  %entry_ = getelementptr inbounds %"class.FLAC::Metadata::VorbisComment::Entry", ptr %this1, i32 0, i32 3
  %entry2 = getelementptr inbounds %struct.FLAC__StreamMetadata_VorbisComment_Entry, ptr %entry_, i32 0, i32 1
  %0 = load ptr, ptr %entry2, align 8
  %cmp = icmp ne ptr null, %0
  br i1 %cmp, label %if.then, label %if.end

if.then:                                          ; preds = %entry
  %entry_3 = getelementptr inbounds %"class.FLAC::Metadata::VorbisComment::Entry", ptr %this1, i32 0, i32 3
  %entry4 = getelementptr inbounds %struct.FLAC__StreamMetadata_VorbisComment_Entry, ptr %entry_3, i32 0, i32 1
  %1 = load ptr, ptr %entry4, align 8
  call void @free(ptr noundef %1) #14
  %entry_5 = getelementptr inbounds %"class.FLAC::Metadata::VorbisComment::Entry", ptr %this1, i32 0, i32 3
  %entry6 = getelementptr inbounds %struct.FLAC__StreamMetadata_VorbisComment_Entry, ptr %entry_5, i32 0, i32 1
  store ptr null, ptr %entry6, align 8
  %entry_7 = getelementptr inbounds %"class.FLAC::Metadata::VorbisComment::Entry", ptr %this1, i32 0, i32 3
  %length = getelementptr inbounds %struct.FLAC__StreamMetadata_VorbisComment_Entry, ptr %entry_7, i32 0, i32 0
  store i32 0, ptr %length, align 8
  br label %if.end

if.end:                                           ; preds = %if.then, %entry
  ret void
}

; Function Attrs: mustprogress sspstrong uwtable
define noundef zeroext i1 @_ZN4FLAC8Metadata13VorbisComment5Entry9set_fieldEPKcj(ptr noundef nonnull align 8 dereferenceable(60) %this, ptr noundef %field, i32 noundef %field_length) #0 align 2 {
entry:
  %retval = alloca i1, align 1
  %this.addr = alloca ptr, align 8
  %field.addr = alloca ptr, align 8
  %field_length.addr = alloca i32, align 4
  store ptr %this, ptr %this.addr, align 8
  store ptr %field, ptr %field.addr, align 8
  store i32 %field_length, ptr %field_length.addr, align 4
  %this1 = load ptr, ptr %this.addr, align 8
  %0 = load ptr, ptr %field.addr, align 8
  %1 = load i32, ptr %field_length.addr, align 4
  %call = call i32 @FLAC__format_vorbiscomment_entry_is_legal(ptr noundef %0, i32 noundef %1)
  %tobool = icmp ne i32 %call, 0
  br i1 %tobool, label %if.end, label %if.then

if.then:                                          ; preds = %entry
  %is_valid_ = getelementptr inbounds %"class.FLAC::Metadata::VorbisComment::Entry", ptr %this1, i32 0, i32 1
  store i8 0, ptr %is_valid_, align 8
  store i1 false, ptr %retval, align 1
  br label %return

if.end:                                           ; preds = %entry
  call void @_ZN4FLAC8Metadata13VorbisComment5Entry11clear_entryEv(ptr noundef nonnull align 8 dereferenceable(60) %this1)
  %2 = load i32, ptr %field_length.addr, align 4
  %conv = zext i32 %2 to i64
  %call2 = call noundef ptr @_ZL20safe_malloc_add_2op_mm(i64 noundef %conv, i64 noundef 1)
  %entry_ = getelementptr inbounds %"class.FLAC::Metadata::VorbisComment::Entry", ptr %this1, i32 0, i32 3
  %entry3 = getelementptr inbounds %struct.FLAC__StreamMetadata_VorbisComment_Entry, ptr %entry_, i32 0, i32 1
  store ptr %call2, ptr %entry3, align 8
  %cmp = icmp eq ptr null, %call2
  br i1 %cmp, label %if.then4, label %if.else

if.then4:                                         ; preds = %if.end
  %is_valid_5 = getelementptr inbounds %"class.FLAC::Metadata::VorbisComment::Entry", ptr %this1, i32 0, i32 1
  store i8 0, ptr %is_valid_5, align 8
  br label %if.end12

if.else:                                          ; preds = %if.end
  %3 = load i32, ptr %field_length.addr, align 4
  %entry_6 = getelementptr inbounds %"class.FLAC::Metadata::VorbisComment::Entry", ptr %this1, i32 0, i32 3
  %length = getelementptr inbounds %struct.FLAC__StreamMetadata_VorbisComment_Entry, ptr %entry_6, i32 0, i32 0
  store i32 %3, ptr %length, align 8
  %entry_7 = getelementptr inbounds %"class.FLAC::Metadata::VorbisComment::Entry", ptr %this1, i32 0, i32 3
  %entry8 = getelementptr inbounds %struct.FLAC__StreamMetadata_VorbisComment_Entry, ptr %entry_7, i32 0, i32 1
  %4 = load ptr, ptr %entry8, align 8
  %5 = load ptr, ptr %field.addr, align 8
  %6 = load i32, ptr %field_length.addr, align 4
  %conv9 = zext i32 %6 to i64
  call void @llvm.memcpy.p0.p0.i64(ptr align 1 %4, ptr align 1 %5, i64 %conv9, i1 false)
  %entry_10 = getelementptr inbounds %"class.FLAC::Metadata::VorbisComment::Entry", ptr %this1, i32 0, i32 3
  %entry11 = getelementptr inbounds %struct.FLAC__StreamMetadata_VorbisComment_Entry, ptr %entry_10, i32 0, i32 1
  %7 = load ptr, ptr %entry11, align 8
  %8 = load i32, ptr %field_length.addr, align 4
  %idxprom = zext i32 %8 to i64
  %arrayidx = getelementptr inbounds i8, ptr %7, i64 %idxprom
  store i8 0, ptr %arrayidx, align 1
  call void @_ZN4FLAC8Metadata13VorbisComment5Entry11parse_fieldEv(ptr noundef nonnull align 8 dereferenceable(60) %this1)
  br label %if.end12

if.end12:                                         ; preds = %if.else, %if.then4
  %is_valid_13 = getelementptr inbounds %"class.FLAC::Metadata::VorbisComment::Entry", ptr %this1, i32 0, i32 1
  %9 = load i8, ptr %is_valid_13, align 8
  %tobool14 = trunc i8 %9 to i1
  store i1 %tobool14, ptr %retval, align 1
  br label %return

return:                                           ; preds = %if.end12, %if.then
  %10 = load i1, ptr %retval, align 1
  ret i1 %10
}

; Function Attrs: mustprogress sspstrong uwtable
define void @_ZN4FLAC8Metadata13VorbisComment5Entry9constructEPKcj(ptr noundef nonnull align 8 dereferenceable(60) %this, ptr noundef %field, i32 noundef %field_length) #0 align 2 {
entry:
  %this.addr = alloca ptr, align 8
  %field.addr = alloca ptr, align 8
  %field_length.addr = alloca i32, align 4
  store ptr %this, ptr %this.addr, align 8
  store ptr %field, ptr %field.addr, align 8
  store i32 %field_length, ptr %field_length.addr, align 4
  %this1 = load ptr, ptr %this.addr, align 8
  %0 = load ptr, ptr %field.addr, align 8
  %1 = load i32, ptr %field_length.addr, align 4
  %call = call noundef zeroext i1 @_ZN4FLAC8Metadata13VorbisComment5Entry9set_fieldEPKcj(ptr noundef nonnull align 8 dereferenceable(60) %this1, ptr noundef %0, i32 noundef %1)
  br i1 %call, label %if.then, label %if.end

if.then:                                          ; preds = %entry
  call void @_ZN4FLAC8Metadata13VorbisComment5Entry11parse_fieldEv(ptr noundef nonnull align 8 dereferenceable(60) %this1)
  br label %if.end

if.end:                                           ; preds = %if.then, %entry
  ret void
}

; Function Attrs: mustprogress sspstrong uwtable
define void @_ZN4FLAC8Metadata13VorbisComment5Entry9constructEPKc(ptr noundef nonnull align 8 dereferenceable(60) %this, ptr noundef %field) #0 align 2 {
entry:
  %this.addr = alloca ptr, align 8
  %field.addr = alloca ptr, align 8
  store ptr %this, ptr %this.addr, align 8
  store ptr %field, ptr %field.addr, align 8
  %this1 = load ptr, ptr %this.addr, align 8
  %0 = load ptr, ptr %field.addr, align 8
  %1 = load ptr, ptr %field.addr, align 8
  %call = call i64 @strlen(ptr noundef %1) #3
  %conv = trunc i64 %call to i32
  call void @_ZN4FLAC8Metadata13VorbisComment5Entry9constructEPKcj(ptr noundef nonnull align 8 dereferenceable(60) %this1, ptr noundef %0, i32 noundef %conv)
  ret void
}