; Function Attrs: mustprogress sspstrong uwtable
define void @_ZN4FLAC8Metadata13VorbisComment5Entry9constructEPKc(ptr nocapture noundef nonnull align 8 dereferenceable(60) %this, ptr noundef %field) local_unnamed_addr #0 align 2 {
entry:
  %call = tail call i64 @strlen(ptr noundef nonnull dereferenceable(1) %field) #24
  %conv = trunc i64 %call to i32
  %call.i.i = tail call i32 @FLAC__format_vorbiscomment_entry_is_legal(ptr noundef %field, i32 noundef %conv)
  %tobool.not.i.i = icmp eq i32 %call.i.i, 0
  br i1 %tobool.not.i.i, label %if.then.i.i, label %if.end.i.i

if.then.i.i:                                      ; preds = %entry
  %is_valid_.i.i = getelementptr inbounds i8, ptr %this, i64 8
  store i8 0, ptr %is_valid_.i.i, align 8
  br label %_ZN4FLAC8Metadata13VorbisComment5Entry9constructEPKcj.exit

if.end.i.i:                                       ; preds = %entry
  %entry2.i.i.i = getelementptr inbounds i8, ptr %this, i64 24
  %0 = load ptr, ptr %entry2.i.i.i, align 8
  %cmp.not.i.i.i = icmp eq ptr %0, null
  br i1 %cmp.not.i.i.i, label %_ZN4FLAC8Metadata13VorbisComment5Entry11clear_entryEv.exit.i.i, label %if.then.i.i.i

if.then.i.i.i:                                    ; preds = %if.end.i.i
  %entry_.i.i.i = getelementptr inbounds i8, ptr %this, i64 16
  tail call void @free(ptr noundef nonnull %0) #20
  store i32 0, ptr %entry_.i.i.i, align 8
  br label %_ZN4FLAC8Metadata13VorbisComment5Entry11clear_entryEv.exit.i.i

_ZN4FLAC8Metadata13VorbisComment5Entry11clear_entryEv.exit.i.i: ; preds = %if.then.i.i.i, %if.end.i.i
  %conv.i.i = and i64 %call, 4294967295
  %add.i.i.i = add nuw nsw i64 %conv.i.i, 1
  %call.i.i.i.i = tail call noalias noundef ptr @malloc(i64 noundef %add.i.i.i) #23
  store ptr %call.i.i.i.i, ptr %entry2.i.i.i, align 8
  %cmp.i.i = icmp eq ptr %call.i.i.i.i, null
  br i1 %cmp.i.i, label %if.then4.i.i, label %_ZN4FLAC8Metadata13VorbisComment5Entry9set_fieldEPKcj.exit.i

if.then4.i.i:                                     ; preds = %_ZN4FLAC8Metadata13VorbisComment5Entry11clear_entryEv.exit.i.i
  %is_valid_5.i.i = getelementptr inbounds i8, ptr %this, i64 8
  store i8 0, ptr %is_valid_5.i.i, align 8
  br label %_ZN4FLAC8Metadata13VorbisComment5Entry9constructEPKcj.exit

_ZN4FLAC8Metadata13VorbisComment5Entry9set_fieldEPKcj.exit.i: ; preds = %_ZN4FLAC8Metadata13VorbisComment5Entry11clear_entryEv.exit.i.i
  %entry_.i.i = getelementptr inbounds i8, ptr %this, i64 16
  store i32 %conv, ptr %entry_.i.i, align 8
  tail call void @llvm.memcpy.p0.p0.i64(ptr nonnull align 1 %call.i.i.i.i, ptr align 1 %field, i64 %conv.i.i, i1 false)
  %arrayidx.i.i = getelementptr inbounds i8, ptr %call.i.i.i.i, i64 %conv.i.i
  store i8 0, ptr %arrayidx.i.i, align 1
  tail call void @_ZN4FLAC8Metadata13VorbisComment5Entry11parse_fieldEv(ptr noundef nonnull align 8 dereferenceable(60) %this)
  %is_valid_13.phi.trans.insert.i.i = getelementptr inbounds i8, ptr %this, i64 8
  %.pre.i.i = load i8, ptr %is_valid_13.phi.trans.insert.i.i, align 8
  %1 = and i8 %.pre.i.i, 1
  %.not.i = icmp eq i8 %1, 0
  br i1 %.not.i, label %_ZN4FLAC8Metadata13VorbisComment5Entry9constructEPKcj.exit, label %if.then.i

if.then.i:                                        ; preds = %_ZN4FLAC8Metadata13VorbisComment5Entry9set_fieldEPKcj.exit.i
  tail call void @_ZN4FLAC8Metadata13VorbisComment5Entry11parse_fieldEv(ptr noundef nonnull align 8 dereferenceable(60) %this)
  br label %_ZN4FLAC8Metadata13VorbisComment5Entry9constructEPKcj.exit

_ZN4FLAC8Metadata13VorbisComment5Entry9constructEPKcj.exit: ; preds = %if.then.i.i, %if.then4.i.i, %_ZN4FLAC8Metadata13VorbisComment5Entry9set_fieldEPKcj.exit.i, %if.then.i
  ret void
}